; Function Attrs: mustprogress uwtable
define hidden noundef i32 @_ZN4ncnn8BinaryOp10load_paramERKNS_9ParamDictE(ptr nocapture noundef nonnull align 8 dereferenceable(220) %0, ptr noundef nonnull align 8 dereferenceable(16) %1) unnamed_addr #0 align 2 {
  %3 = tail call noundef i32 @_ZNK4ncnn9ParamDict3getEii(ptr noundef nonnull align 8 dereferenceable(16) %1, i32 noundef 0, i32 noundef 0)
  %4 = getelementptr inbounds nuw i8, ptr %0, i64 208
  store i32 %3, ptr %4, align 8
  %5 = tail call noundef i32 @_ZNK4ncnn9ParamDict3getEii(ptr noundef nonnull align 8 dereferenceable(16) %1, i32 noundef 1, i32 noundef 0)
  %6 = getelementptr inbounds nuw i8, ptr %0, i64 212
  store i32 %5, ptr %6, align 4
  %7 = tail call fast noundef nofpclass(nan inf) float @_ZNK4ncnn9ParamDict3getEif(ptr noundef nonnull align 8 dereferenceable(16) %1, i32 noundef 2, float noundef nofpclass(nan inf) 0.000000e+00)
  %8 = getelementptr inbounds nuw i8, ptr %0, i64 216
  store float %7, ptr %8, align 8
  %9 = load i32, ptr %6, align 4
  %.not = icmp eq i32 %9, 0
  br i1 %.not, label %13, label %10

10:                                               ; preds = %2
  %11 = getelementptr inbounds nuw i8, ptr %0, i64 8
  store i8 1, ptr %11, align 8
  %12 = getelementptr inbounds nuw i8, ptr %0, i64 9
  store i8 1, ptr %12, align 1
  br label %13

13:                                               ; preds = %10, %2
  ret i32 0
}